target datalayout = "e-m:e-p270:32:32-p271:32:32-p272:64:64-i64:64-i128:128-f80:128-n8:16:32:64-S128"
target triple = "x86_64-pc-linux-gnu"

%struct.nstime_t = type { i64, i32 }
%struct._address = type { i32, i32, ptr, ptr }
%struct._conversation_item_t = type { ptr, %struct._address, %struct._address, i32, i32, i32, i32, i64, i64, i64, i64, i64, i64, i64, i64, %struct.nstime_t, %struct.nstime_t, %struct.nstime_t, i8, %struct._conversation_extension_tcp_t }
%struct._conversation_extension_tcp_t = type { i64 }

@.str.32 = private unnamed_addr constant [9 x i8] c"dnp3.dst\00", align 1
@.str.35 = private unnamed_addr constant [9 x i8] c"dnp3.src\00", align 1
@.str.38 = private unnamed_addr constant [10 x i8] c"dnp3.addr\00", align 1
@.str.1030 = private unnamed_addr constant [8 x i8] c"INVALID\00", align 1

; Function Attrs: nounwind null_pointer_is_valid sspstrong uwtable
define internal ptr @dnp3_conv_get_filter_type(ptr noundef %0, i32 noundef %1) #7 {
  %3 = alloca ptr, align 8
  %4 = alloca ptr, align 8
  %5 = alloca i32, align 4
  store ptr %0, ptr %4, align 8
  store i32 %1, ptr %5, align 4
  %6 = load i32, ptr %5, align 4
  %7 = icmp eq i32 %6, 0
  br i1 %7, label %8, label %16

8:                                                ; preds = %2
  %9 = load ptr, ptr %4, align 8
  %10 = getelementptr inbounds nuw %struct._conversation_item_t, ptr %9, i32 0, i32 1
  %11 = getelementptr inbounds nuw %struct._address, ptr %10, i32 0, i32 0
  %12 = load i32, ptr %11, align 8
  %13 = icmp eq i32 %12, 12
  br i1 %13, label %14, label %15

14:                                               ; preds = %8
  store ptr @.str.35, ptr %3, align 8
  br label %45

15:                                               ; preds = %8
  br label %16

16:                                               ; preds = %15, %2
  %17 = load i32, ptr %5, align 4
  %18 = icmp eq i32 %17, 1
  br i1 %18, label %19, label %27

19:                                               ; preds = %16
  %20 = load ptr, ptr %4, align 8
  %21 = getelementptr inbounds nuw %struct._conversation_item_t, ptr %20, i32 0, i32 2
  %22 = getelementptr inbounds nuw %struct._address, ptr %21, i32 0, i32 0
  %23 = load i32, ptr %22, align 8
  %24 = icmp eq i32 %23, 12
  br i1 %24, label %25, label %26

25:                                               ; preds = %19
  store ptr @.str.32, ptr %3, align 8
  br label %45

26:                                               ; preds = %19
  br label %27

27:                                               ; preds = %26, %16
  %28 = load i32, ptr %5, align 4
  %29 = icmp eq i32 %28, 2
  br i1 %29, label %30, label %44

30:                                               ; preds = %27
  %31 = load ptr, ptr %4, align 8
  %32 = getelementptr inbounds nuw %struct._conversation_item_t, ptr %31, i32 0, i32 1
  %33 = getelementptr inbounds nuw %struct._address, ptr %32, i32 0, i32 0
  %34 = load i32, ptr %33, align 8
  %35 = icmp eq i32 %34, 12
  br i1 %35, label %36, label %43

36:                                               ; preds = %30
  %37 = load ptr, ptr %4, align 8
  %38 = getelementptr inbounds nuw %struct._conversation_item_t, ptr %37, i32 0, i32 2
  %39 = getelementptr inbounds nuw %struct._address, ptr %38, i32 0, i32 0
  %40 = load i32, ptr %39, align 8
  %41 = icmp eq i32 %40, 12
  br i1 %41, label %42, label %43

42:                                               ; preds = %36
  store ptr @.str.38, ptr %3, align 8
  br label %45

43:                                               ; preds = %36, %30
  br label %44

44:                                               ; preds = %43, %27
  store ptr @.str.1030, ptr %3, align 8
  br label %45

45:                                               ; preds = %44, %42, %25, %14
  %46 = load ptr, ptr %3, align 8
  ret ptr %46
}